target datalayout = "e-m:e-p270:32:32-p271:32:32-p272:64:64-i64:64-i128:128-f80:128-n8:16:32:64-S128"
target triple = "x86_64-pc-linux-gnu"

%struct.HASHCTL = type { i64, i64, i64, i64, i64, i64, ptr, ptr, ptr, ptr, ptr, ptr }
%struct.ErrorSaveContext = type { i32, i8, i8, ptr }

@TSCurrentConfig = dso_local global ptr null, align 8
@CacheMemoryContext = external global ptr, align 8
@.str.2 = private unnamed_addr constant [11 x i8] c"ts_cache.c\00", align 1
@TSConfigCacheHash = internal global ptr null, align 8
@TSCurrentConfigCache = internal global i32 0, align 4
@.str.17 = private unnamed_addr constant [36 x i8] c"text search configuration isn't set\00", align 1
@__func__.getTSCurrentConfig = private unnamed_addr constant [19 x i8] c"getTSCurrentConfig\00", align 1
@__const.getTSCurrentConfig.escontext = private unnamed_addr constant { i32, i8, i8, [2 x i8], ptr } { i32 446, i8 0, i8 0, [2 x i8] zeroinitializer, ptr null }, align 8
@.str.19 = private unnamed_addr constant [28 x i8] c"Tsearch configuration cache\00", align 1

; Function Attrs: inlinehint nounwind uwtable
define internal i64 @PointerGetDatum(ptr noundef %0) #3 {
  %2 = alloca ptr, align 8
  store ptr %0, ptr %2, align 8
  %3 = load ptr, ptr %2, align 8
  %4 = ptrtoint ptr %3 to i64
  ret i64 %4
}

; Function Attrs: nounwind uwtable
define internal void @init_ts_config_cache() #0 {
  %1 = alloca %struct.HASHCTL, align 8
  call void @llvm.lifetime.start.p0(i64 96, ptr %1) #7
  %2 = getelementptr inbounds nuw %struct.HASHCTL, ptr %1, i32 0, i32 4
  store i64 4, ptr %2, align 8
  %3 = getelementptr inbounds nuw %struct.HASHCTL, ptr %1, i32 0, i32 5
  store i64 24, ptr %3, align 8
  %4 = call ptr @hash_create(ptr noundef @.str.19, i64 noundef 16, ptr noundef %1, i32 noundef 40)
  store ptr %4, ptr @TSConfigCacheHash, align 8
  %5 = load ptr, ptr @TSConfigCacheHash, align 8
  %6 = call i64 @PointerGetDatum(ptr noundef %5)
  call void @CacheRegisterSyscacheCallback(i32 noundef 74, ptr noundef @InvalidateTSCacheCallBack, i64 noundef %6)
  %7 = load ptr, ptr @TSConfigCacheHash, align 8
  %8 = call i64 @PointerGetDatum(ptr noundef %7)
  call void @CacheRegisterSyscacheCallback(i32 noundef 72, ptr noundef @InvalidateTSCacheCallBack, i64 noundef %8)
  %9 = load ptr, ptr @CacheMemoryContext, align 8
  %10 = icmp ne ptr %9, null
  br i1 %10, label %12, label %11

11:                                               ; preds = %0
  call void @CreateCacheMemoryContext()
  br label %12

12:                                               ; preds = %11, %0
  call void @llvm.lifetime.end.p0(i64 96, ptr %1) #7
  ret void
}

; Function Attrs: nounwind uwtable
define dso_local i32 @getTSCurrentConfig(i1 noundef zeroext %0) #0 {
  %2 = alloca i32, align 4
  %3 = alloca i8, align 1
  %4 = alloca ptr, align 8
  %5 = alloca i32, align 4
  %6 = alloca %struct.ErrorSaveContext, align 8
  %7 = zext i1 %0 to i8
  store i8 %7, ptr %3, align 1
  call void @llvm.lifetime.start.p0(i64 8, ptr %4) #7
  %8 = load i32, ptr @TSCurrentConfigCache, align 4
  %9 = icmp ne i32 %8, 0
  br i1 %9, label %10, label %12

10:                                               ; preds = %1
  %11 = load i32, ptr @TSCurrentConfigCache, align 4
  store i32 %11, ptr %2, align 4
  store i32 1, ptr %5, align 4
  br label %60

12:                                               ; preds = %1
  %13 = load ptr, ptr @TSCurrentConfig, align 8
  %14 = icmp eq ptr %13, null
  br i1 %14, label %20, label %15

15:                                               ; preds = %12
  %16 = load ptr, ptr @TSCurrentConfig, align 8
  %17 = load i8, ptr %16, align 1
  %18 = sext i8 %17 to i32
  %19 = icmp eq i32 %18, 0
  br i1 %19, label %20, label %36

20:                                               ; preds = %15, %12
  %21 = load i8, ptr %3, align 1, !range !4, !noundef !5
  %22 = trunc i8 %21 to i1
  br i1 %22, label %23, label %34

23:                                               ; preds = %20
  br label %24

24:                                               ; preds = %23
  br i1 true, label %25, label %27

25:                                               ; preds = %24
  %26 = call zeroext i1 @errstart_cold(i32 noundef 21, ptr noundef null) #8
  br i1 %26, label %29, label %31

27:                                               ; preds = %24
  %28 = call zeroext i1 @errstart(i32 noundef 21, ptr noundef null)
  br i1 %28, label %29, label %31

29:                                               ; preds = %27, %25
  %30 = call i32 (ptr, ...) @errmsg_internal(ptr noundef @.str.17)
  call void @errfinish(ptr noundef @.str.2, i32 noundef 568, ptr noundef @__func__.getTSCurrentConfig)
  br label %31

31:                                               ; preds = %29, %27, %25
  unreachable

32:                                               ; No predecessors!
  br label %33

33:                                               ; preds = %32
  br label %35

34:                                               ; preds = %20
  store i32 0, ptr %2, align 4
  store i32 1, ptr %5, align 4
  br label %60

35:                                               ; preds = %33
  br label %36

36:                                               ; preds = %35, %15
  %37 = load ptr, ptr @TSConfigCacheHash, align 8
  %38 = icmp eq ptr %37, null
  br i1 %38, label %39, label %40

39:                                               ; preds = %36
  call void @init_ts_config_cache()
  br label %40

40:                                               ; preds = %39, %36
  %41 = load i8, ptr %3, align 1, !range !4, !noundef !5
  %42 = trunc i8 %41 to i1
  br i1 %42, label %43, label %48

43:                                               ; preds = %40
  %44 = load ptr, ptr @TSCurrentConfig, align 8
  %45 = call ptr @stringToQualifiedNameList(ptr noundef %44, ptr noundef null)
  store ptr %45, ptr %4, align 8
  %46 = load ptr, ptr %4, align 8
  %47 = call i32 @get_ts_config_oid(ptr noundef %46, i1 noundef zeroext false)
  store i32 %47, ptr @TSCurrentConfigCache, align 4
  br label %58

48:                                               ; preds = %40
  call void @llvm.lifetime.start.p0(i64 16, ptr %6) #7
  call void @llvm.memcpy.p0.p0.i64(ptr align 8 %6, ptr align 8 @__const.getTSCurrentConfig.escontext, i64 16, i1 false)
  %49 = load ptr, ptr @TSCurrentConfig, align 8
  %50 = call ptr @stringToQualifiedNameList(ptr noundef %49, ptr noundef %6)
  store ptr %50, ptr %4, align 8
  %51 = load ptr, ptr %4, align 8
  %52 = icmp ne ptr %51, null
  br i1 %52, label %53, label %56

53:                                               ; preds = %48
  %54 = load ptr, ptr %4, align 8
  %55 = call i32 @get_ts_config_oid(ptr noundef %54, i1 noundef zeroext true)
  store i32 %55, ptr @TSCurrentConfigCache, align 4
  br label %57

56:                                               ; preds = %48
  store i32 0, ptr @TSCurrentConfigCache, align 4
  br label %57

57:                                               ; preds = %56, %53
  call void @llvm.lifetime.end.p0(i64 16, ptr %6) #7
  br label %58

58:                                               ; preds = %57, %43
  %59 = load i32, ptr @TSCurrentConfigCache, align 4
  store i32 %59, ptr %2, align 4
  store i32 1, ptr %5, align 4
  br label %60

60:                                               ; preds = %58, %34, %10
  call void @llvm.lifetime.end.p0(i64 8, ptr %4) #7
  %61 = load i32, ptr %2, align 4
  ret i32 %61
}