; Function Attrs: nounwind uwtable
define dso_local i32 @getTSCurrentConfig(i1 noundef zeroext %0) local_unnamed_addr #0 {
  %2 = alloca %struct.HASHCTL, align 8
  %3 = alloca %struct.ErrorSaveContext, align 8
  %4 = load i32, ptr @TSCurrentConfigCache, align 4
  %.not = icmp eq i32 %4, 0
  br i1 %.not, label %5, label %38

5:                                                ; preds = %1
  %6 = load ptr, ptr @TSCurrentConfig, align 8
  %7 = icmp eq ptr %6, null
  br i1 %7, label %11, label %8

8:                                                ; preds = %5
  %9 = load i8, ptr %6, align 1
  %10 = icmp eq i8 %9, 0
  br i1 %10, label %11, label %15

11:                                               ; preds = %8, %5
  br i1 %0, label %12, label %38

12:                                               ; preds = %11
  %13 = tail call zeroext i1 @errstart_cold(i32 noundef 21, ptr noundef null) #9
  tail call void @llvm.assume(i1 %13)
  %14 = tail call i32 (ptr, ...) @errmsg_internal(ptr noundef nonnull @.str.17) #8
  tail call void @errfinish(ptr noundef nonnull @.str.2, i32 noundef 568, ptr noundef nonnull @__func__.getTSCurrentConfig) #8
  unreachable

15:                                               ; preds = %8
  %16 = load ptr, ptr @TSConfigCacheHash, align 8
  %17 = icmp eq ptr %16, null
  br i1 %17, label %18, label %27

18:                                               ; preds = %15
  call void @llvm.lifetime.start.p0(i64 96, ptr nonnull %2) #8
  %19 = getelementptr inbounds nuw i8, ptr %2, i64 32
  store i64 4, ptr %19, align 8
  %20 = getelementptr inbounds nuw i8, ptr %2, i64 40
  store i64 24, ptr %20, align 8
  %21 = call ptr @hash_create(ptr noundef nonnull @.str.19, i64 noundef 16, ptr noundef nonnull %2, i32 noundef 40) #8
  store ptr %21, ptr @TSConfigCacheHash, align 8
  %22 = ptrtoint ptr %21 to i64
  call void @CacheRegisterSyscacheCallback(i32 noundef 74, ptr noundef nonnull @InvalidateTSCacheCallBack, i64 noundef %22) #8
  %23 = load ptr, ptr @TSConfigCacheHash, align 8
  %24 = ptrtoint ptr %23 to i64
  call void @CacheRegisterSyscacheCallback(i32 noundef 72, ptr noundef nonnull @InvalidateTSCacheCallBack, i64 noundef %24) #8
  %25 = load ptr, ptr @CacheMemoryContext, align 8
  %.not.i = icmp eq ptr %25, null
  br i1 %.not.i, label %26, label %init_ts_config_cache.exit

26:                                               ; preds = %18
  call void @CreateCacheMemoryContext() #8
  br label %init_ts_config_cache.exit

init_ts_config_cache.exit:                        ; preds = %18, %26
  call void @llvm.lifetime.end.p0(i64 96, ptr nonnull %2) #8
  br label %27

27:                                               ; preds = %init_ts_config_cache.exit, %15
  br i1 %0, label %28, label %32

28:                                               ; preds = %27
  %29 = load ptr, ptr @TSCurrentConfig, align 8
  %30 = call ptr @stringToQualifiedNameList(ptr noundef %29, ptr noundef null) #8
  %31 = call i32 @get_ts_config_oid(ptr noundef %30, i1 noundef zeroext false) #8
  store i32 %31, ptr @TSCurrentConfigCache, align 4
  br label %38

32:                                               ; preds = %27
  call void @llvm.lifetime.start.p0(i64 16, ptr nonnull %3) #8
  call void @llvm.memcpy.p0.p0.i64(ptr noundef nonnull align 8 dereferenceable(16) %3, ptr noundef nonnull align 8 dereferenceable(16) @__const.check_default_text_search_config.escontext, i64 16, i1 false)
  %33 = load ptr, ptr @TSCurrentConfig, align 8
  %34 = call ptr @stringToQualifiedNameList(ptr noundef %33, ptr noundef nonnull %3) #8
  %.not8 = icmp eq ptr %34, null
  br i1 %.not8, label %37, label %35

35:                                               ; preds = %32
  %36 = call i32 @get_ts_config_oid(ptr noundef nonnull %34, i1 noundef zeroext true) #8
  br label %37

37:                                               ; preds = %32, %35
  %storemerge = phi i32 [ %36, %35 ], [ 0, %32 ]
  store i32 %storemerge, ptr @TSCurrentConfigCache, align 4
  call void @llvm.lifetime.end.p0(i64 16, ptr nonnull %3) #8
  br label %38

38:                                               ; preds = %28, %37, %11, %1
  %.0 = phi i32 [ %4, %1 ], [ 0, %11 ], [ %storemerge, %37 ], [ %31, %28 ]
  ret i32 %.0
}